target datalayout = "e-m:e-p270:32:32-p271:32:32-p272:64:64-i64:64-i128:128-f80:128-n8:16:32:64-S128"
target triple = "x86_64-pc-linux-gnu"

%"struct.c4::yml::Callbacks" = type { ptr, ptr, ptr, ptr }
%"struct.c4::basic_substring.0" = type { ptr, i64 }
%"struct.c4::basic_substring" = type { ptr, i64 }
%"struct.c4::yml::Location" = type { %"struct.c4::yml::LineCol", %"struct.c4::basic_substring.0" }
%"struct.c4::yml::LineCol" = type { i64, i64, i64 }
%"class.c4::yml::Tree" = type { ptr, i64, i64, i64, i64, %"struct.c4::basic_substring", i64, %"struct.c4::yml::Callbacks", [4 x %"struct.c4::yml::TagDirective"] }
%"struct.c4::yml::TagDirective" = type { %"struct.c4::basic_substring.0", %"struct.c4::basic_substring.0", i64 }
%"class.c4::yml::ConstNodeRef" = type { ptr, i64 }
%"struct.c4::yml::NodeData" = type { %"struct.c4::yml::NodeType", %"struct.c4::yml::NodeScalar", %"struct.c4::yml::NodeScalar", i64, i64, i64, i64, i64 }
%"struct.c4::yml::NodeType" = type { i64 }
%"struct.c4::yml::NodeScalar" = type { %"struct.c4::basic_substring.0", %"struct.c4::basic_substring.0", %"struct.c4::basic_substring.0" }

@.str = private unnamed_addr constant [128 x i8] c"generated/home/dtcxzyw/WorkSpace/Projects/compilers/llvm-opt-benchmark/bench/jsonnet/jsonnet/third_party/rapidyaml/ryml_all.hpp\00", align 1
@__const._ZNK2c43yml4Tree5childEmm.msg = private unnamed_addr constant [29 x i8] c"check failed: (node != NONE)\00", align 16
@__const._ZNK2c43yml6detail13RoNodeMethodsINS0_12ConstNodeRefES3_EixEm.msg = private unnamed_addr constant [68 x i8] c"check failed: (((ConstImpl const* __restrict__)this)->m_id != NONE)\00", align 16
@__const._ZNK2c43yml6detail13RoNodeMethodsINS0_12ConstNodeRefES3_EixEm.msg.465 = private unnamed_addr constant [27 x i8] c"check failed: (ch != NONE)\00", align 16

; Function Attrs: inlinehint mustprogress nounwind uwtable
define linkonce_odr noundef ptr @_ZNK2c43yml4Tree2_pEm(ptr noundef nonnull align 8 dereferenceable(256) %0, i64 noundef %1) #3 comdat align 2 {
  %3 = alloca ptr, align 8
  %4 = alloca i64, align 8
  store ptr %0, ptr %3, align 8, !tbaa !96
  store i64 %1, ptr %4, align 8, !tbaa !15
  %5 = load ptr, ptr %3, align 8
  %6 = getelementptr inbounds nuw %"class.c4::yml::Tree", ptr %5, i32 0, i32 0
  %7 = load ptr, ptr %6, align 8, !tbaa !118
  %8 = load i64, ptr %4, align 8, !tbaa !15
  %9 = getelementptr inbounds nuw %"struct.c4::yml::NodeData", ptr %7, i64 %8
  ret ptr %9
}

; Function Attrs: mustprogress nounwind uwtable
define linkonce_odr void @_ZN2c415basic_substringIKcEC2EPS1_m(ptr noundef nonnull align 8 dereferenceable(16) %0, ptr noundef %1, i64 noundef %2) unnamed_addr #0 comdat align 2 {
  %4 = alloca ptr, align 8
  %5 = alloca ptr, align 8
  %6 = alloca i64, align 8
  store ptr %0, ptr %4, align 8, !tbaa !45
  store ptr %1, ptr %5, align 8, !tbaa !20
  store i64 %2, ptr %6, align 8, !tbaa !15
  %7 = load ptr, ptr %4, align 8
  %8 = getelementptr inbounds nuw %"struct.c4::basic_substring.0", ptr %7, i32 0, i32 0
  %9 = load ptr, ptr %5, align 8, !tbaa !20
  store ptr %9, ptr %8, align 8, !tbaa !37
  %10 = getelementptr inbounds nuw %"struct.c4::basic_substring.0", ptr %7, i32 0, i32 1
  %11 = load i64, ptr %6, align 8, !tbaa !15
  store i64 %11, ptr %10, align 8, !tbaa !39
  ret void
}

; Function Attrs: mustprogress uwtable
define linkonce_odr noundef i64 @_ZNK2c43yml4Tree12next_siblingEm(ptr noundef nonnull align 8 dereferenceable(256) %0, i64 noundef %1) #1 comdat align 2 {
  %3 = alloca ptr, align 8
  %4 = alloca i64, align 8
  store ptr %0, ptr %3, align 8, !tbaa !96
  store i64 %1, ptr %4, align 8, !tbaa !15
  %5 = load ptr, ptr %3, align 8
  %6 = load i64, ptr %4, align 8, !tbaa !15
  %7 = call noundef ptr @_ZNK2c43yml4Tree2_pEm(ptr noundef nonnull align 8 dereferenceable(256) %5, i64 noundef %6)
  %8 = getelementptr inbounds nuw %"struct.c4::yml::NodeData", ptr %7, i32 0, i32 6
  %9 = load i64, ptr %8, align 8, !tbaa !127
  ret i64 %9
}

; Function Attrs: mustprogress uwtable
define linkonce_odr noundef i64 @_ZNK2c43yml4Tree11first_childEm(ptr noundef nonnull align 8 dereferenceable(256) %0, i64 noundef %1) #1 comdat align 2 {
  %3 = alloca ptr, align 8
  %4 = alloca i64, align 8
  store ptr %0, ptr %3, align 8, !tbaa !96
  store i64 %1, ptr %4, align 8, !tbaa !15
  %5 = load ptr, ptr %3, align 8
  %6 = load i64, ptr %4, align 8, !tbaa !15
  %7 = call noundef ptr @_ZNK2c43yml4Tree2_pEm(ptr noundef nonnull align 8 dereferenceable(256) %5, i64 noundef %6)
  %8 = getelementptr inbounds nuw %"struct.c4::yml::NodeData", ptr %7, i32 0, i32 4
  %9 = load i64, ptr %8, align 8, !tbaa !146
  ret i64 %9
}

; Function Attrs: inlinehint mustprogress uwtable
define linkonce_odr { ptr, i64 } @_ZN2c410to_csubstrEPKc(ptr noundef %0) #19 comdat {
  %2 = alloca %"struct.c4::basic_substring.0", align 8
  %3 = alloca ptr, align 8
  store ptr %0, ptr %3, align 8, !tbaa !20
  %4 = load ptr, ptr %3, align 8, !tbaa !20
  %5 = load ptr, ptr %3, align 8, !tbaa !20
  %6 = icmp ne ptr %5, null
  br i1 %6, label %7, label %10

7:                                                ; preds = %1
  %8 = load ptr, ptr %3, align 8, !tbaa !20
  %9 = call i64 @strlen(ptr noundef %8) #26
  br label %11

10:                                               ; preds = %1
  br label %11

11:                                               ; preds = %10, %7
  %12 = phi i64 [ %9, %7 ], [ 0, %10 ]
  call void @_ZN2c415basic_substringIKcEC2EPS1_m(ptr noundef nonnull align 8 dereferenceable(16) %2, ptr noundef %4, i64 noundef %12)
  %13 = load { ptr, i64 }, ptr %2, align 8
  ret { ptr, i64 } %13
}

; Function Attrs: mustprogress nounwind uwtable
define linkonce_odr void @_ZN2c43yml7LineColC2Emmm(ptr noundef nonnull align 8 dereferenceable(24) %0, i64 noundef %1, i64 noundef %2, i64 noundef %3) unnamed_addr #0 comdat align 2 {
  %5 = alloca ptr, align 8
  %6 = alloca i64, align 8
  %7 = alloca i64, align 8
  %8 = alloca i64, align 8
  store ptr %0, ptr %5, align 8, !tbaa !355
  store i64 %1, ptr %6, align 8, !tbaa !15
  store i64 %2, ptr %7, align 8, !tbaa !15
  store i64 %3, ptr %8, align 8, !tbaa !15
  %9 = load ptr, ptr %5, align 8
  %10 = getelementptr inbounds nuw %"struct.c4::yml::LineCol", ptr %9, i32 0, i32 0
  %11 = load i64, ptr %6, align 8, !tbaa !15
  store i64 %11, ptr %10, align 8, !tbaa !80
  %12 = getelementptr inbounds nuw %"struct.c4::yml::LineCol", ptr %9, i32 0, i32 1
  %13 = load i64, ptr %7, align 8, !tbaa !15
  store i64 %13, ptr %12, align 8, !tbaa !78
  %14 = getelementptr inbounds nuw %"struct.c4::yml::LineCol", ptr %9, i32 0, i32 2
  %15 = load i64, ptr %8, align 8, !tbaa !15
  store i64 %15, ptr %14, align 8, !tbaa !79
  ret void
}

; Function Attrs: mustprogress uwtable
define noundef i64 @_ZNK2c43yml4Tree5childEmm(ptr noundef nonnull align 8 dereferenceable(256) %0, i64 noundef %1, i64 noundef %2) #1 align 2 {
  %4 = alloca i64, align 8
  %5 = alloca ptr, align 8
  %6 = alloca i64, align 8
  %7 = alloca i64, align 8
  %8 = alloca [29 x i8], align 16
  %9 = alloca %"struct.c4::yml::Location", align 8
  %10 = alloca i64, align 8
  %11 = alloca i64, align 8
  %12 = alloca i32, align 4
  store ptr %0, ptr %5, align 8, !tbaa !96
  store i64 %1, ptr %6, align 8, !tbaa !15
  store i64 %2, ptr %7, align 8, !tbaa !15
  %13 = load ptr, ptr %5, align 8
  br label %14

14:                                               ; preds = %3
  %15 = load i64, ptr %6, align 8, !tbaa !15
  %16 = icmp ne i64 %15, -1
  br i1 %16, label %25, label %17

17:                                               ; preds = %14
  call void @llvm.lifetime.start.p0(i64 29, ptr %8) #25
  call void @llvm.memcpy.p0.p0.i64(ptr align 16 %8, ptr align 16 @__const._ZNK2c43yml4Tree5childEmm.msg, i64 29, i1 false)
  %18 = getelementptr inbounds nuw %"class.c4::yml::Tree", ptr %13, i32 0, i32 7
  %19 = getelementptr inbounds nuw %"struct.c4::yml::Callbacks", ptr %18, i32 0, i32 3
  %20 = load ptr, ptr %19, align 8, !tbaa !112
  %21 = getelementptr inbounds [29 x i8], ptr %8, i64 0, i64 0
  call void @_ZN2c43yml8LocationC2EPKcmmm(ptr noundef nonnull align 8 dereferenceable(40) %9, ptr noundef @.str, i64 noundef 0, i64 noundef 26491, i64 noundef 0)
  %22 = getelementptr inbounds nuw %"class.c4::yml::Tree", ptr %13, i32 0, i32 7
  %23 = getelementptr inbounds nuw %"struct.c4::yml::Callbacks", ptr %22, i32 0, i32 0
  %24 = load ptr, ptr %23, align 8, !tbaa !113
  call void %20(ptr noundef %21, i64 noundef 29, ptr noundef byval(%"struct.c4::yml::Location") align 8 %9, ptr noundef %24)
  call void @llvm.lifetime.end.p0(i64 29, ptr %8) #25
  br label %25

25:                                               ; preds = %17, %14
  br label %26

26:                                               ; preds = %25
  call void @llvm.lifetime.start.p0(i64 8, ptr %10) #25
  store i64 0, ptr %10, align 8, !tbaa !15
  call void @llvm.lifetime.start.p0(i64 8, ptr %11) #25
  %27 = load i64, ptr %6, align 8, !tbaa !15
  %28 = call noundef i64 @_ZNK2c43yml4Tree11first_childEm(ptr noundef nonnull align 8 dereferenceable(256) %13, i64 noundef %27)
  store i64 %28, ptr %11, align 8, !tbaa !15
  br label %29

29:                                               ; preds = %41, %26
  %30 = load i64, ptr %11, align 8, !tbaa !15
  %31 = icmp ne i64 %30, -1
  br i1 %31, label %33, label %32

32:                                               ; preds = %29
  store i32 4, ptr %12, align 4
  br label %44

33:                                               ; preds = %29
  %34 = load i64, ptr %10, align 8, !tbaa !15
  %35 = add i64 %34, 1
  store i64 %35, ptr %10, align 8, !tbaa !15
  %36 = load i64, ptr %7, align 8, !tbaa !15
  %37 = icmp eq i64 %34, %36
  br i1 %37, label %38, label %40

38:                                               ; preds = %33
  %39 = load i64, ptr %11, align 8, !tbaa !15
  store i64 %39, ptr %4, align 8
  store i32 1, ptr %12, align 4
  br label %44

40:                                               ; preds = %33
  br label %41

41:                                               ; preds = %40
  %42 = load i64, ptr %11, align 8, !tbaa !15
  %43 = call noundef i64 @_ZNK2c43yml4Tree12next_siblingEm(ptr noundef nonnull align 8 dereferenceable(256) %13, i64 noundef %42)
  store i64 %43, ptr %11, align 8, !tbaa !15
  br label %29, !llvm.loop !184

44:                                               ; preds = %38, %32
  call void @llvm.lifetime.end.p0(i64 8, ptr %11) #25
  %45 = load i32, ptr %12, align 4
  switch i32 %45, label %47 [
    i32 4, label %46
  ]

46:                                               ; preds = %44
  store i64 -1, ptr %4, align 8
  store i32 1, ptr %12, align 4
  br label %47

47:                                               ; preds = %46, %44
  call void @llvm.lifetime.end.p0(i64 8, ptr %10) #25
  %48 = load i64, ptr %4, align 8
  ret i64 %48
}

; Function Attrs: mustprogress uwtable
define linkonce_odr void @_ZN2c43yml8LocationC2EPKcmmm(ptr noundef nonnull align 8 dereferenceable(40) %0, ptr noundef %1, i64 noundef %2, i64 noundef %3, i64 noundef %4) unnamed_addr #1 comdat align 2 {
  %6 = alloca ptr, align 8
  %7 = alloca ptr, align 8
  %8 = alloca i64, align 8
  %9 = alloca i64, align 8
  %10 = alloca i64, align 8
  store ptr %0, ptr %6, align 8, !tbaa !81
  store ptr %1, ptr %7, align 8, !tbaa !20
  store i64 %2, ptr %8, align 8, !tbaa !15
  store i64 %3, ptr %9, align 8, !tbaa !15
  store i64 %4, ptr %10, align 8, !tbaa !15
  %11 = load ptr, ptr %6, align 8
  %12 = load i64, ptr %8, align 8, !tbaa !15
  %13 = load i64, ptr %9, align 8, !tbaa !15
  %14 = load i64, ptr %10, align 8, !tbaa !15
  call void @_ZN2c43yml7LineColC2Emmm(ptr noundef nonnull align 8 dereferenceable(24) %11, i64 noundef %12, i64 noundef %13, i64 noundef %14)
  %15 = getelementptr inbounds nuw %"struct.c4::yml::Location", ptr %11, i32 0, i32 1
  %16 = load ptr, ptr %7, align 8, !tbaa !20
  %17 = call { ptr, i64 } @_ZN2c410to_csubstrEPKc(ptr noundef %16)
  %18 = getelementptr inbounds nuw { ptr, i64 }, ptr %15, i32 0, i32 0
  %19 = extractvalue { ptr, i64 } %17, 0
  store ptr %19, ptr %18, align 8
  %20 = getelementptr inbounds nuw { ptr, i64 }, ptr %15, i32 0, i32 1
  %21 = extractvalue { ptr, i64 } %17, 1
  store i64 %21, ptr %20, align 8
  ret void
}

; Function Attrs: mustprogress nounwind uwtable
define linkonce_odr void @_ZN2c43yml12ConstNodeRefC2EPKNS0_4TreeEm(ptr noundef nonnull align 8 dereferenceable(16) %0, ptr noundef %1, i64 noundef %2) unnamed_addr #0 comdat align 2 {
  %4 = alloca ptr, align 8
  %5 = alloca ptr, align 8
  %6 = alloca i64, align 8
  store ptr %0, ptr %4, align 8, !tbaa !106
  store ptr %1, ptr %5, align 8, !tbaa !96
  store i64 %2, ptr %6, align 8, !tbaa !15
  %7 = load ptr, ptr %4, align 8
  %8 = getelementptr inbounds nuw %"class.c4::yml::ConstNodeRef", ptr %7, i32 0, i32 0
  %9 = load ptr, ptr %5, align 8, !tbaa !96
  store ptr %9, ptr %8, align 8, !tbaa !108
  %10 = getelementptr inbounds nuw %"class.c4::yml::ConstNodeRef", ptr %7, i32 0, i32 1
  %11 = load i64, ptr %6, align 8, !tbaa !15
  store i64 %11, ptr %10, align 8, !tbaa !110
  ret void
}

; Function Attrs: mustprogress nounwind uwtable
define linkonce_odr noundef i64 @_ZNK2c43yml4Tree7root_idEv(ptr noundef nonnull align 8 dereferenceable(256) %0) #0 comdat align 2 {
  %2 = alloca ptr, align 8
  store ptr %0, ptr %2, align 8, !tbaa !96
  ret i64 0
}

; Function Attrs: alwaysinline mustprogress nounwind willreturn memory(read) uwtable
define linkonce_odr { ptr, i64 } @_ZNK2c43yml6detail13RoNodeMethodsINS0_12ConstNodeRefES3_EixEm(ptr noundef nonnull align 1 dereferenceable(1) %0, i64 noundef %1) #4 comdat align 2 personality ptr @__gxx_personality_v0 {
  %3 = alloca %"class.c4::yml::ConstNodeRef", align 8
  %4 = alloca ptr, align 8
  %5 = alloca i64, align 8
  %6 = alloca [68 x i8], align 16
  %7 = alloca %"struct.c4::yml::Location", align 8
  %8 = alloca i64, align 8
  %9 = alloca [27 x i8], align 16
  %10 = alloca %"struct.c4::yml::Location", align 8
  store ptr %0, ptr %4, align 8, !tbaa !116
  store i64 %1, ptr %5, align 8, !tbaa !15
  %11 = load ptr, ptr %4, align 8
  br label %12

12:                                               ; preds = %2
  %13 = getelementptr inbounds nuw %"class.c4::yml::ConstNodeRef", ptr %11, i32 0, i32 1
  %14 = load i64, ptr %13, align 8, !tbaa !110
  %15 = icmp ne i64 %14, -1
  br i1 %15, label %30, label %16

16:                                               ; preds = %12
  call void @llvm.lifetime.start.p0(i64 68, ptr %6) #25
  call void @llvm.memcpy.p0.p0.i64(ptr align 16 %6, ptr align 16 @__const._ZNK2c43yml6detail13RoNodeMethodsINS0_12ConstNodeRefES3_EixEm.msg, i64 68, i1 false)
  %17 = getelementptr inbounds nuw %"class.c4::yml::ConstNodeRef", ptr %11, i32 0, i32 0
  %18 = load ptr, ptr %17, align 8, !tbaa !108
  %19 = getelementptr inbounds nuw %"class.c4::yml::Tree", ptr %18, i32 0, i32 7
  %20 = getelementptr inbounds nuw %"struct.c4::yml::Callbacks", ptr %19, i32 0, i32 3
  %21 = load ptr, ptr %20, align 8, !tbaa !112
  %22 = getelementptr inbounds [68 x i8], ptr %6, i64 0, i64 0
  invoke void @_ZN2c43yml8LocationC2EPKcmmm(ptr noundef nonnull align 8 dereferenceable(40) %7, ptr noundef @.str, i64 noundef 0, i64 noundef 20666, i64 noundef 0)
          to label %23 unwind label %65

23:                                               ; preds = %16
  %24 = getelementptr inbounds nuw %"class.c4::yml::ConstNodeRef", ptr %11, i32 0, i32 0
  %25 = load ptr, ptr %24, align 8, !tbaa !108
  %26 = getelementptr inbounds nuw %"class.c4::yml::Tree", ptr %25, i32 0, i32 7
  %27 = getelementptr inbounds nuw %"struct.c4::yml::Callbacks", ptr %26, i32 0, i32 0
  %28 = load ptr, ptr %27, align 8, !tbaa !113
  invoke void %21(ptr noundef %22, i64 noundef 68, ptr noundef byval(%"struct.c4::yml::Location") align 8 %7, ptr noundef %28)
          to label %29 unwind label %65

29:                                               ; preds = %23
  call void @llvm.lifetime.end.p0(i64 68, ptr %6) #25
  br label %30

30:                                               ; preds = %29, %12
  br label %31

31:                                               ; preds = %30
  br label %32

32:                                               ; preds = %31
  call void @llvm.lifetime.start.p0(i64 8, ptr %8) #25
  %33 = getelementptr inbounds nuw %"class.c4::yml::ConstNodeRef", ptr %11, i32 0, i32 0
  %34 = load ptr, ptr %33, align 8, !tbaa !108
  %35 = getelementptr inbounds nuw %"class.c4::yml::ConstNodeRef", ptr %11, i32 0, i32 1
  %36 = load i64, ptr %35, align 8, !tbaa !110
  %37 = load i64, ptr %5, align 8, !tbaa !15
  %38 = invoke noundef i64 @_ZNK2c43yml4Tree5childEmm(ptr noundef nonnull align 8 dereferenceable(256) %34, i64 noundef %36, i64 noundef %37)
          to label %39 unwind label %65

39:                                               ; preds = %32
  store i64 %38, ptr %8, align 8, !tbaa !15
  br label %40

40:                                               ; preds = %39
  %41 = load i64, ptr %8, align 8, !tbaa !15
  %42 = icmp ne i64 %41, -1
  br i1 %42, label %57, label %43

43:                                               ; preds = %40
  call void @llvm.lifetime.start.p0(i64 27, ptr %9) #25
  call void @llvm.memcpy.p0.p0.i64(ptr align 16 %9, ptr align 16 @__const._ZNK2c43yml6detail13RoNodeMethodsINS0_12ConstNodeRefES3_EixEm.msg.465, i64 27, i1 false)
  %44 = getelementptr inbounds nuw %"class.c4::yml::ConstNodeRef", ptr %11, i32 0, i32 0
  %45 = load ptr, ptr %44, align 8, !tbaa !108
  %46 = getelementptr inbounds nuw %"class.c4::yml::Tree", ptr %45, i32 0, i32 7
  %47 = getelementptr inbounds nuw %"struct.c4::yml::Callbacks", ptr %46, i32 0, i32 3
  %48 = load ptr, ptr %47, align 8, !tbaa !112
  %49 = getelementptr inbounds [27 x i8], ptr %9, i64 0, i64 0
  invoke void @_ZN2c43yml8LocationC2EPKcmmm(ptr noundef nonnull align 8 dereferenceable(40) %10, ptr noundef @.str, i64 noundef 0, i64 noundef 20668, i64 noundef 0)
          to label %50 unwind label %65

50:                                               ; preds = %43
  %51 = getelementptr inbounds nuw %"class.c4::yml::ConstNodeRef", ptr %11, i32 0, i32 0
  %52 = load ptr, ptr %51, align 8, !tbaa !108
  %53 = getelementptr inbounds nuw %"class.c4::yml::Tree", ptr %52, i32 0, i32 7
  %54 = getelementptr inbounds nuw %"struct.c4::yml::Callbacks", ptr %53, i32 0, i32 0
  %55 = load ptr, ptr %54, align 8, !tbaa !113
  invoke void %48(ptr noundef %49, i64 noundef 27, ptr noundef byval(%"struct.c4::yml::Location") align 8 %10, ptr noundef %55)
          to label %56 unwind label %65

56:                                               ; preds = %50
  call void @llvm.lifetime.end.p0(i64 27, ptr %9) #25
  br label %57

57:                                               ; preds = %56, %40
  br label %58

58:                                               ; preds = %57
  br label %59

59:                                               ; preds = %58
  %60 = getelementptr inbounds nuw %"class.c4::yml::ConstNodeRef", ptr %11, i32 0, i32 0
  %61 = load ptr, ptr %60, align 8, !tbaa !108
  %62 = load i64, ptr %8, align 8, !tbaa !15
  invoke void @_ZN2c43yml12ConstNodeRefC2EPKNS0_4TreeEm(ptr noundef nonnull align 8 dereferenceable(16) %3, ptr noundef %61, i64 noundef %62)
          to label %63 unwind label %65

63:                                               ; preds = %59
  call void @llvm.lifetime.end.p0(i64 8, ptr %8) #25
  %64 = load { ptr, i64 }, ptr %3, align 8
  ret { ptr, i64 } %64

65:                                               ; preds = %59, %50, %43, %32, %23, %16
  %66 = landingpad { ptr, i32 }
          catch ptr null
  %67 = extractvalue { ptr, i32 } %66, 0
  call void @__clang_call_terminate(ptr %67) #27
  unreachable
}

; Function Attrs: mustprogress uwtable
define { ptr, i64 } @_ZNK2c43yml4Tree7rootrefEv(ptr noundef nonnull align 8 dereferenceable(256) %0) #1 align 2 {
  %2 = alloca %"class.c4::yml::ConstNodeRef", align 8
  %3 = alloca ptr, align 8
  store ptr %0, ptr %3, align 8, !tbaa !96
  %4 = load ptr, ptr %3, align 8
  %5 = call noundef i64 @_ZNK2c43yml4Tree7root_idEv(ptr noundef nonnull align 8 dereferenceable(256) %4)
  call void @_ZN2c43yml12ConstNodeRefC2EPKNS0_4TreeEm(ptr noundef nonnull align 8 dereferenceable(16) %2, ptr noundef %4, i64 noundef %5)
  %6 = load { ptr, i64 }, ptr %2, align 8
  ret { ptr, i64 } %6
}

; Function Attrs: mustprogress uwtable
define { ptr, i64 } @_ZNK2c43yml4TreeixEm(ptr noundef nonnull align 8 dereferenceable(256) %0, i64 noundef %1) #1 align 2 {
  %3 = alloca %"class.c4::yml::ConstNodeRef", align 8
  %4 = alloca ptr, align 8
  %5 = alloca i64, align 8
  %6 = alloca %"class.c4::yml::ConstNodeRef", align 8
  store ptr %0, ptr %4, align 8, !tbaa !96
  store i64 %1, ptr %5, align 8, !tbaa !15
  %7 = load ptr, ptr %4, align 8
  call void @llvm.lifetime.start.p0(i64 16, ptr %6) #25
  %8 = call { ptr, i64 } @_ZNK2c43yml4Tree7rootrefEv(ptr noundef nonnull align 8 dereferenceable(256) %7)
  %9 = getelementptr inbounds nuw { ptr, i64 }, ptr %6, i32 0, i32 0
  %10 = extractvalue { ptr, i64 } %8, 0
  store ptr %10, ptr %9, align 8
  %11 = getelementptr inbounds nuw { ptr, i64 }, ptr %6, i32 0, i32 1
  %12 = extractvalue { ptr, i64 } %8, 1
  store i64 %12, ptr %11, align 8
  %13 = load i64, ptr %5, align 8, !tbaa !15
  %14 = call { ptr, i64 } @_ZNK2c43yml6detail13RoNodeMethodsINS0_12ConstNodeRefES3_EixEm(ptr noundef nonnull align 1 dereferenceable(1) %6, i64 noundef %13) #26
  %15 = getelementptr inbounds nuw { ptr, i64 }, ptr %3, i32 0, i32 0
  %16 = extractvalue { ptr, i64 } %14, 0
  store ptr %16, ptr %15, align 8
  %17 = getelementptr inbounds nuw { ptr, i64 }, ptr %3, i32 0, i32 1
  %18 = extractvalue { ptr, i64 } %14, 1
  store i64 %18, ptr %17, align 8
  call void @llvm.lifetime.end.p0(i64 16, ptr %6) #25
  %19 = load { ptr, i64 }, ptr %3, align 8
  ret { ptr, i64 } %19
}