; Function Attrs: mustprogress uwtable
define { ptr, i64 } @_ZNK2c43yml4TreeixEm(ptr noundef nonnull align 8 dereferenceable(256) %0, i64 noundef %1) local_unnamed_addr #1 align 2 personality ptr @__gxx_personality_v0 {
  %3 = alloca [27 x i8], align 16
  %4 = alloca %"struct.c4::yml::Location", align 8
  call void @llvm.lifetime.start.p0(i64 40, ptr nonnull %4)
  %5 = load ptr, ptr %0, align 8, !tbaa !116
  %6 = getelementptr inbounds nuw i8, ptr %5, i64 112
  %.0915.i = load i64, ptr %6, align 8, !tbaa !68
  %.not1416.i = icmp eq i64 %.0915.i, -1
  %7 = icmp eq i64 %1, 0
  %or.cond17.i = or i1 %7, %.not1416.i
  br i1 %or.cond17.i, label %.loopexit, label %.lr.ph.i

.lr.ph.i:                                         ; preds = %2, %.lr.ph.i
  %.0919.i = phi i64 [ %.09.i, %.lr.ph.i ], [ %.0915.i, %2 ]
  %.01018.i = phi i64 [ %8, %.lr.ph.i ], [ 0, %2 ]
  %8 = add nuw i64 %.01018.i, 1
  %9 = getelementptr inbounds nuw %"struct.c4::yml::NodeData", ptr %5, i64 %.0919.i, i32 6
  %.09.i = load i64, ptr %9, align 8, !tbaa !68
  %.not14.i = icmp eq i64 %.09.i, -1
  %10 = icmp eq i64 %8, %1
  %or.cond.i = select i1 %.not14.i, i1 true, i1 %10
  br i1 %or.cond.i, label %.loopexit, label %.lr.ph.i, !llvm.loop !120

.loopexit:                                        ; preds = %.lr.ph.i, %2
  %.09.lcssa.i = phi i64 [ %.0915.i, %2 ], [ %.09.i, %.lr.ph.i ]
  %.not5.i = icmp eq i64 %.09.lcssa.i, -1
  br i1 %.not5.i, label %11, label %_ZNK2c43yml6detail13RoNodeMethodsINS0_12ConstNodeRefES3_EixEm.exit

11:                                               ; preds = %.loopexit
  call void @llvm.lifetime.start.p0(i64 27, ptr nonnull %3) #39
  call void @llvm.memcpy.p0.p0.i64(ptr noundef nonnull align 16 dereferenceable(27) %3, ptr noundef nonnull align 16 dereferenceable(27) @__const._ZNK2c43yml6detail13RoNodeMethodsINS0_12ConstNodeRefES3_EixEm.msg.465, i64 27, i1 false)
  %12 = getelementptr inbounds nuw i8, ptr %0, i64 88
  %13 = load ptr, ptr %12, align 8, !tbaa !102
  store i64 0, ptr %4, align 8, !tbaa !103
  %14 = getelementptr inbounds nuw i8, ptr %4, i64 8
  store i64 20668, ptr %14, align 8, !tbaa !104
  %15 = getelementptr inbounds nuw i8, ptr %4, i64 16
  store i64 0, ptr %15, align 8, !tbaa !58
  %16 = getelementptr inbounds nuw i8, ptr %4, i64 24
  store ptr @.str, ptr %16, align 8
  %17 = getelementptr inbounds nuw i8, ptr %4, i64 32
  store i64 127, ptr %17, align 8
  %18 = getelementptr inbounds nuw i8, ptr %0, i64 64
  %19 = load ptr, ptr %18, align 8, !tbaa !105
  invoke void %13(ptr noundef nonnull %3, i64 noundef 27, ptr noundef nonnull byval(%"struct.c4::yml::Location") align 8 %4, ptr noundef %19)
          to label %.split4.i unwind label %20

.split4.i:                                        ; preds = %11
  call void @llvm.lifetime.end.p0(i64 27, ptr nonnull %3) #39
  br label %_ZNK2c43yml6detail13RoNodeMethodsINS0_12ConstNodeRefES3_EixEm.exit

20:                                               ; preds = %11
  %21 = landingpad { ptr, i32 }
          catch ptr null
  %22 = extractvalue { ptr, i32 } %21, 0
  call void @__clang_call_terminate(ptr %22) #41
  unreachable

_ZNK2c43yml6detail13RoNodeMethodsINS0_12ConstNodeRefES3_EixEm.exit: ; preds = %.loopexit, %.split4.i
  %.fca.0.insert.i1 = insertvalue { ptr, i64 } poison, ptr %0, 0
  %.fca.1.insert.i = insertvalue { ptr, i64 } %.fca.0.insert.i1, i64 %.09.lcssa.i, 1
  call void @llvm.lifetime.end.p0(i64 40, ptr nonnull %4)
  ret { ptr, i64 } %.fca.1.insert.i
}